target datalayout = "e-m:e-p270:32:32-p271:32:32-p272:64:64-i64:64-i128:128-f80:128-n8:16:32:64-S128"
target triple = "x86_64-pc-linux-gnu"

%struct.dt_imageio_jpeg_t = type { i32, i32, %struct.jpeg_source_mgr, %struct.jpeg_destination_mgr, %struct.jpeg_decompress_struct, %struct.jpeg_compress_struct, ptr }
%struct.jpeg_source_mgr = type { ptr, i64, ptr, ptr, ptr, ptr, ptr }
%struct.jpeg_destination_mgr = type { ptr, i64, ptr, ptr, ptr }
%struct.jpeg_decompress_struct = type { ptr, ptr, ptr, ptr, i32, i32, ptr, i32, i32, i32, i32, i32, i32, i32, double, i32, i32, i32, i32, i32, i32, i32, i32, i32, i32, i32, i32, i32, i32, i32, i32, i32, i32, ptr, i32, i32, i32, i32, i32, ptr, [4 x ptr], [4 x ptr], [4 x ptr], i32, ptr, i32, i32, i32, [16 x i8], [16 x i8], [16 x i8], i32, i32, i8, i8, i8, i16, i16, i32, i8, i32, ptr, i32, i32, i32, i32, i32, ptr, i32, [4 x ptr], i32, i32, i32, [10 x i32], i32, i32, i32, i32, i32, ptr, i32, i32, ptr, ptr, ptr, ptr, ptr, ptr, ptr, ptr, ptr, ptr, ptr }
%struct.jpeg_compress_struct = type { ptr, ptr, ptr, ptr, i32, i32, ptr, i32, i32, i32, i32, double, i32, i32, i32, i32, i32, i32, i32, ptr, [4 x ptr], [4 x i32], [4 x ptr], [4 x ptr], [16 x i8], [16 x i8], [16 x i8], i32, ptr, i32, i32, i32, i32, i32, i32, i32, i32, i32, i32, i8, i8, i8, i16, i16, i32, i32, i32, i32, i32, i32, i32, i32, i32, [4 x ptr], i32, i32, i32, [10 x i32], i32, i32, i32, i32, i32, ptr, i32, ptr, ptr, ptr, ptr, ptr, ptr, ptr, ptr, ptr, ptr, i32 }
%struct.dt_image_t = type { i32, i32, float, float, float, float, float, float, float, [64 x i8], [64 x i8], [128 x i8], [64 x i8], [64 x i8], [64 x i8], [64 x i8], i64, i32, %union.dt_image_correction_data_t, [64 x i8], [64 x i8], [64 x i8], [128 x i8], i32, [256 x i8], i32, i32, i32, i32, i32, i32, i32, i32, i32, i32, float, i32, i32, i32, i32, i32, i32, i64, i64, i64, i64, i32, [12 x i8], %struct.dt_iop_buffer_dsc_t, [9 x float], ptr, i32, i32, %struct.dt_image_raw_parameters_t, %struct.dt_image_geoloc_t, %struct._color_harmony_t, i16, [4 x i16], i32, i32, float, float, [4 x float], [4 x [3 x float]], [4 x float], ptr, ptr, i32, i32, [8 x i8] }
%union.dt_image_correction_data_t = type { %struct.anon.0 }
%struct.anon.0 = type { i32, float, [11 x float], [11 x float], [11 x float], [11 x float], [11 x float] }
%struct.dt_iop_buffer_dsc_t = type { i32, i32, i32, [6 x [6 x i8]], %struct.anon.3, [12 x i8], %struct.anon.4, [4 x float], i32, [12 x i8] }
%struct.anon.3 = type { i16, i16 }
%struct.anon.4 = type { i32, [12 x i8], [4 x float] }
%struct.dt_image_raw_parameters_t = type { i32 }
%struct.dt_image_geoloc_t = type { double, double, double }
%struct._color_harmony_t = type { i32, i32, i32 }

; Function Attrs: inlinehint nounwind uwtable
define internal ptr @dt_alloc_align_uint8(i64 noundef %0) #4 {
  %2 = alloca i64, align 8
  store i64 %0, ptr %2, align 8, !tbaa !10
  %3 = load i64, ptr %2, align 8, !tbaa !10
  %4 = mul i64 %3, 1
  %5 = call ptr @dt_alloc_aligned(i64 noundef %4)
  call void @llvm.assume(i1 true) [ "align"(ptr %5, i64 64) ]
  ret ptr %5
}

; Function Attrs: nounwind uwtable
define i32 @dt_imageio_open_jpeg(ptr noundef %0, ptr noundef %1, ptr noundef %2) #0 {
  %4 = alloca i32, align 4
  %5 = alloca ptr, align 8
  %6 = alloca ptr, align 8
  %7 = alloca ptr, align 8
  %8 = alloca %struct.dt_imageio_jpeg_t, align 8
  %9 = alloca i32, align 4
  %10 = alloca ptr, align 8
  %11 = alloca ptr, align 8
  store ptr %0, ptr %5, align 8, !tbaa !154
  store ptr %1, ptr %6, align 8, !tbaa !82
  store ptr %2, ptr %7, align 8, !tbaa !156
  %12 = load ptr, ptr %5, align 8, !tbaa !154
  %13 = getelementptr inbounds nuw %struct.dt_image_t, ptr %12, i32 0, i32 0
  %14 = load i32, ptr %13, align 16, !tbaa !158
  %15 = icmp ne i32 %14, 0
  br i1 %15, label %20, label %16

16:                                               ; preds = %3
  %17 = load ptr, ptr %5, align 8, !tbaa !154
  %18 = load ptr, ptr %6, align 8, !tbaa !82
  %19 = call i32 @dt_exif_read(ptr noundef %17, ptr noundef %18)
  br label %20

20:                                               ; preds = %16, %3
  call void @llvm.lifetime.start.p0(i64 1352, ptr %8) #9
  %21 = load ptr, ptr %6, align 8, !tbaa !82
  %22 = call i32 @dt_imageio_jpeg_read_header(ptr noundef %21, ptr noundef %8)
  %23 = icmp ne i32 %22, 0
  br i1 %23, label %24, label %25

24:                                               ; preds = %20
  store i32 6, ptr %4, align 4
  store i32 1, ptr %9, align 4
  br label %106

25:                                               ; preds = %20
  %26 = getelementptr inbounds nuw %struct.dt_imageio_jpeg_t, ptr %8, i32 0, i32 0
  %27 = load i32, ptr %26, align 8, !tbaa !67
  %28 = load ptr, ptr %5, align 8, !tbaa !154
  %29 = getelementptr inbounds nuw %struct.dt_image_t, ptr %28, i32 0, i32 25
  store i32 %27, ptr %29, align 4, !tbaa !168
  %30 = getelementptr inbounds nuw %struct.dt_imageio_jpeg_t, ptr %8, i32 0, i32 1
  %31 = load i32, ptr %30, align 4, !tbaa !69
  %32 = load ptr, ptr %5, align 8, !tbaa !154
  %33 = getelementptr inbounds nuw %struct.dt_image_t, ptr %32, i32 0, i32 26
  store i32 %31, ptr %33, align 16, !tbaa !169
  call void @llvm.lifetime.start.p0(i64 8, ptr %10) #9
  %34 = getelementptr inbounds nuw %struct.dt_imageio_jpeg_t, ptr %8, i32 0, i32 0
  %35 = load i32, ptr %34, align 8, !tbaa !67
  %36 = mul nsw i32 4, %35
  %37 = getelementptr inbounds nuw %struct.dt_imageio_jpeg_t, ptr %8, i32 0, i32 1
  %38 = load i32, ptr %37, align 4, !tbaa !69
  %39 = mul nsw i32 %36, %38
  %40 = sext i32 %39 to i64
  %41 = call ptr @dt_alloc_align_uint8(i64 noundef %40)
  store ptr %41, ptr %10, align 8, !tbaa !82
  %42 = load ptr, ptr %10, align 8, !tbaa !82
  %43 = icmp ne ptr %42, null
  br i1 %43, label %45, label %44

44:                                               ; preds = %25
  store i32 2, ptr %4, align 4
  store i32 1, ptr %9, align 4
  br label %105

45:                                               ; preds = %25
  %46 = load ptr, ptr %10, align 8, !tbaa !82
  %47 = call i32 @dt_imageio_jpeg_read(ptr noundef %8, ptr noundef %46)
  %48 = icmp ne i32 %47, 0
  br i1 %48, label %49, label %51

49:                                               ; preds = %45
  %50 = load ptr, ptr %10, align 8, !tbaa !82
  call void @free(ptr noundef %50) #9
  store i32 6, ptr %4, align 4
  store i32 1, ptr %9, align 4
  br label %105

51:                                               ; preds = %45
  %52 = load ptr, ptr %5, align 8, !tbaa !154
  %53 = getelementptr inbounds nuw %struct.dt_image_t, ptr %52, i32 0, i32 48
  %54 = getelementptr inbounds nuw %struct.dt_iop_buffer_dsc_t, ptr %53, i32 0, i32 0
  store i32 4, ptr %54, align 16, !tbaa !170
  %55 = load ptr, ptr %5, align 8, !tbaa !154
  %56 = getelementptr inbounds nuw %struct.dt_image_t, ptr %55, i32 0, i32 48
  %57 = getelementptr inbounds nuw %struct.dt_iop_buffer_dsc_t, ptr %56, i32 0, i32 1
  store i32 1, ptr %57, align 4, !tbaa !171
  call void @llvm.lifetime.start.p0(i64 8, ptr %11) #9
  %58 = load ptr, ptr %7, align 8, !tbaa !156
  %59 = load ptr, ptr %5, align 8, !tbaa !154
  %60 = call ptr @dt_mipmap_cache_alloc(ptr noundef %58, ptr noundef %59)
  store ptr %60, ptr %11, align 8, !tbaa !6
  %61 = load ptr, ptr %11, align 8, !tbaa !6
  %62 = icmp ne ptr %61, null
  br i1 %62, label %65, label %63

63:                                               ; preds = %51
  %64 = load ptr, ptr %10, align 8, !tbaa !82
  call void @free(ptr noundef %64) #9
  store i32 8, ptr %4, align 4
  store i32 1, ptr %9, align 4
  br label %104

65:                                               ; preds = %51
  %66 = load ptr, ptr %11, align 8, !tbaa !6
  %67 = load ptr, ptr %10, align 8, !tbaa !82
  %68 = getelementptr inbounds nuw %struct.dt_imageio_jpeg_t, ptr %8, i32 0, i32 0
  %69 = load i32, ptr %68, align 8, !tbaa !67
  %70 = getelementptr inbounds nuw %struct.dt_imageio_jpeg_t, ptr %8, i32 0, i32 1
  %71 = load i32, ptr %70, align 4, !tbaa !69
  %72 = getelementptr inbounds nuw %struct.dt_imageio_jpeg_t, ptr %8, i32 0, i32 0
  %73 = load i32, ptr %72, align 8, !tbaa !67
  %74 = getelementptr inbounds nuw %struct.dt_imageio_jpeg_t, ptr %8, i32 0, i32 1
  %75 = load i32, ptr %74, align 4, !tbaa !69
  %76 = getelementptr inbounds nuw %struct.dt_imageio_jpeg_t, ptr %8, i32 0, i32 0
  %77 = load i32, ptr %76, align 8, !tbaa !67
  %78 = mul nsw i32 4, %77
  call void @dt_imageio_flip_buffers_ui8_to_float(ptr noundef %66, ptr noundef %67, float noundef 0.000000e+00, float noundef 2.550000e+02, i32 noundef 4, i32 noundef %69, i32 noundef %71, i32 noundef %73, i32 noundef %75, i32 noundef %78, i32 noundef 0)
  %79 = load ptr, ptr %10, align 8, !tbaa !82
  call void @free(ptr noundef %79) #9
  %80 = load ptr, ptr %5, align 8, !tbaa !154
  %81 = getelementptr inbounds nuw %struct.dt_image_t, ptr %80, i32 0, i32 48
  %82 = getelementptr inbounds nuw %struct.dt_iop_buffer_dsc_t, ptr %81, i32 0, i32 8
  store i32 2, ptr %82, align 16, !tbaa !172
  %83 = load ptr, ptr %5, align 8, !tbaa !154
  %84 = getelementptr inbounds nuw %struct.dt_image_t, ptr %83, i32 0, i32 48
  %85 = getelementptr inbounds nuw %struct.dt_iop_buffer_dsc_t, ptr %84, i32 0, i32 2
  store i32 0, ptr %85, align 8, !tbaa !173
  %86 = load ptr, ptr %5, align 8, !tbaa !154
  %87 = getelementptr inbounds nuw %struct.dt_image_t, ptr %86, i32 0, i32 37
  %88 = load i32, ptr %87, align 4, !tbaa !174
  %89 = and i32 %88, -65
  store i32 %89, ptr %87, align 4, !tbaa !174
  %90 = load ptr, ptr %5, align 8, !tbaa !154
  %91 = getelementptr inbounds nuw %struct.dt_image_t, ptr %90, i32 0, i32 37
  %92 = load i32, ptr %91, align 4, !tbaa !174
  %93 = and i32 %92, -131073
  store i32 %93, ptr %91, align 4, !tbaa !174
  %94 = load ptr, ptr %5, align 8, !tbaa !154
  %95 = getelementptr inbounds nuw %struct.dt_image_t, ptr %94, i32 0, i32 37
  %96 = load i32, ptr %95, align 4, !tbaa !174
  %97 = and i32 %96, -129
  store i32 %97, ptr %95, align 4, !tbaa !174
  %98 = load ptr, ptr %5, align 8, !tbaa !154
  %99 = getelementptr inbounds nuw %struct.dt_image_t, ptr %98, i32 0, i32 37
  %100 = load i32, ptr %99, align 4, !tbaa !174
  %101 = or i32 %100, 32
  store i32 %101, ptr %99, align 4, !tbaa !174
  %102 = load ptr, ptr %5, align 8, !tbaa !154
  %103 = getelementptr inbounds nuw %struct.dt_image_t, ptr %102, i32 0, i32 46
  store i32 4, ptr %103, align 16, !tbaa !175
  store i32 0, ptr %4, align 4
  store i32 1, ptr %9, align 4
  br label %104

104:                                              ; preds = %65, %63
  call void @llvm.lifetime.end.p0(i64 8, ptr %11) #9
  br label %105

105:                                              ; preds = %104, %49, %44
  call void @llvm.lifetime.end.p0(i64 8, ptr %10) #9
  br label %106

106:                                              ; preds = %105, %24
  call void @llvm.lifetime.end.p0(i64 1352, ptr %8) #9
  %107 = load i32, ptr %4, align 4
  ret i32 %107
}