; Function Attrs: nounwind uwtable
define range(i32 0, 9) i32 @dt_imageio_open_jpeg(ptr noundef %0, ptr noundef %1, ptr noundef %2) local_unnamed_addr #0 {
  %4 = alloca %struct.dt_imageio_jpeg_t, align 8
  %5 = load i32, ptr %0, align 16, !tbaa !101
  %.not = icmp eq i32 %5, 0
  br i1 %.not, label %6, label %8

6:                                                ; preds = %3
  %7 = tail call i32 @dt_exif_read(ptr noundef nonnull %0, ptr noundef %1) #14
  br label %8

8:                                                ; preds = %6, %3
  call void @llvm.lifetime.start.p0(i64 1352, ptr nonnull %4) #14
  %9 = call i32 @dt_imageio_jpeg_read_header(ptr noundef %1, ptr noundef nonnull %4)
  %.not27 = icmp eq i32 %9, 0
  br i1 %.not27, label %10, label %39

10:                                               ; preds = %8
  %11 = load i32, ptr %4, align 8, !tbaa !63
  %12 = getelementptr inbounds nuw i8, ptr %0, i64 1372
  store i32 %11, ptr %12, align 4, !tbaa !112
  %13 = getelementptr inbounds nuw i8, ptr %4, i64 4
  %14 = load i32, ptr %13, align 4, !tbaa !65
  %15 = getelementptr inbounds nuw i8, ptr %0, i64 1376
  store i32 %14, ptr %15, align 16, !tbaa !113
  %16 = shl nsw i32 %11, 2
  %17 = mul nsw i32 %16, %14
  %18 = sext i32 %17 to i64
  %19 = call ptr @dt_alloc_aligned(i64 noundef range(i64 -2147483648, 2147483648) %18) #14
  call void @llvm.assume(i1 true) [ "align"(ptr %19, i64 64) ]
  %.not28 = icmp eq ptr %19, null
  br i1 %.not28, label %39, label %20

20:                                               ; preds = %10
  %21 = call i32 @dt_imageio_jpeg_read(ptr noundef nonnull %4, ptr noundef nonnull %19)
  %.not29 = icmp eq i32 %21, 0
  br i1 %.not29, label %23, label %22

22:                                               ; preds = %20
  call void @free(ptr noundef nonnull %19) #14
  br label %39

23:                                               ; preds = %20
  %24 = getelementptr inbounds nuw i8, ptr %0, i64 1488
  store i32 4, ptr %24, align 16, !tbaa !114
  %25 = getelementptr inbounds nuw i8, ptr %0, i64 1492
  store i32 1, ptr %25, align 4, !tbaa !115
  %26 = call ptr @dt_mipmap_cache_alloc(ptr noundef %2, ptr noundef nonnull %0) #14
  %.not30 = icmp eq ptr %26, null
  br i1 %.not30, label %27, label %28

27:                                               ; preds = %23
  call void @free(ptr noundef nonnull %19) #14
  br label %39

28:                                               ; preds = %23
  %29 = load i32, ptr %4, align 8, !tbaa !63
  %30 = load i32, ptr %13, align 4, !tbaa !65
  %31 = shl nsw i32 %29, 2
  call void @dt_imageio_flip_buffers_ui8_to_float(ptr noundef nonnull %26, ptr noundef nonnull %19, float noundef 0.000000e+00, float noundef 2.550000e+02, i32 noundef 4, i32 noundef %29, i32 noundef %30, i32 noundef %29, i32 noundef %30, i32 noundef %31, i32 noundef 0) #14
  call void @free(ptr noundef nonnull %19) #14
  %32 = getelementptr inbounds nuw i8, ptr %0, i64 1600
  store i32 2, ptr %32, align 16, !tbaa !116
  %33 = getelementptr inbounds nuw i8, ptr %0, i64 1496
  store i32 0, ptr %33, align 8, !tbaa !117
  %34 = getelementptr inbounds nuw i8, ptr %0, i64 1420
  %35 = load i32, ptr %34, align 4, !tbaa !118
  %36 = and i32 %35, -131297
  %37 = or disjoint i32 %36, 32
  store i32 %37, ptr %34, align 4, !tbaa !118
  %38 = getelementptr inbounds nuw i8, ptr %0, i64 1472
  store i32 4, ptr %38, align 16, !tbaa !119
  br label %39

39:                                               ; preds = %22, %10, %28, %27, %8
  %.0 = phi i32 [ 6, %8 ], [ 6, %22 ], [ 2, %10 ], [ 0, %28 ], [ 8, %27 ]
  call void @llvm.lifetime.end.p0(i64 1352, ptr nonnull %4) #14
  ret i32 %.0
}